; Function Attrs: mustprogress uwtable
define hidden noundef ptr @_ZN10duckdb_re26Regexp10ParseState12FinishRegexpEPS0_(ptr noundef nonnull readnone align 8 captures(none) dereferenceable(48) %0, ptr noundef returned captures(address_is_null, ret: address, provenance) %1) local_unnamed_addr #9 align 2 personality ptr @__gxx_personality_v0 {
  %3 = icmp eq ptr %1, null
  br i1 %3, label %20, label %4

4:                                                ; preds = %2
  %5 = getelementptr inbounds nuw i8, ptr %1, i64 16
  store ptr null, ptr %5, align 8, !tbaa !23
  %6 = load i8, ptr %1, align 8, !tbaa !26
  %7 = icmp eq i8 %6, 20
  br i1 %7, label %8, label %20

8:                                                ; preds = %4
  %9 = getelementptr inbounds nuw i8, ptr %1, i64 32
  %10 = load ptr, ptr %9, align 8, !tbaa !27
  %.not = icmp eq ptr %10, null
  br i1 %.not, label %20, label %11

11:                                               ; preds = %8
  %12 = getelementptr inbounds nuw i8, ptr %1, i64 24
  store ptr null, ptr %9, align 8, !tbaa !27
  %13 = tail call noundef ptr @_ZN10duckdb_re216CharClassBuilder12GetCharClassEv(ptr noundef nonnull align 8 dereferenceable(64) %10)
  store ptr %13, ptr %12, align 8, !tbaa !27
  %14 = getelementptr inbounds nuw i8, ptr %10, i64 16
  %15 = getelementptr inbounds nuw i8, ptr %10, i64 32
  %16 = load ptr, ptr %15, align 8, !tbaa !34
  invoke void @_ZNSt8_Rb_treeIN10duckdb_re29RuneRangeES1_St9_IdentityIS1_ENS0_13RuneRangeLessESaIS1_EE8_M_eraseEPSt13_Rb_tree_nodeIS1_E(ptr noundef nonnull align 8 dereferenceable(48) %14, ptr noundef %16)
          to label %_ZN10duckdb_re216CharClassBuilderD2Ev.exit unwind label %17

17:                                               ; preds = %11
  %18 = landingpad { ptr, i32 }
          catch ptr null
  %19 = extractvalue { ptr, i32 } %18, 0
  tail call void @__clang_call_terminate(ptr %19) #31
  unreachable

_ZN10duckdb_re216CharClassBuilderD2Ev.exit:       ; preds = %11
  tail call void @_ZdlPv(ptr noundef nonnull %10) #30
  br label %20

20:                                               ; preds = %4, %8, %_ZN10duckdb_re216CharClassBuilderD2Ev.exit, %2
  ret ptr %1
}